; Function Attrs: mustprogress uwtable
define hidden noundef zeroext i1 @_ZNK10arith_util32is_irrational_algebraic_numeral2EPK4exprRN17algebraic_numbers4anumE(ptr noundef nonnull align 8 captures(none) dereferenceable(16) %0, ptr noundef readonly captures(none) %1, ptr noundef nonnull align 8 dereferenceable(8) %2) local_unnamed_addr #3 align 2 {
  %4 = getelementptr inbounds nuw i8, ptr %1, i64 4
  %5 = load i32, ptr %4, align 4
  %6 = and i32 %5, 65535
  %7 = icmp eq i32 %6, 0
  br i1 %7, label %8, label %_Z9is_app_ofPK4exprii.exit.thread

8:                                                ; preds = %3
  %9 = getelementptr inbounds nuw i8, ptr %1, i64 16
  %10 = load ptr, ptr %9, align 8, !tbaa !193
  %11 = getelementptr inbounds nuw i8, ptr %10, i64 24
  %12 = load ptr, ptr %11, align 8, !tbaa !212
  %.not.i.i.i = icmp eq ptr %12, null
  br i1 %.not.i.i.i, label %_Z9is_app_ofPK4exprii.exit.thread, label %_Z9is_app_ofPK4exprii.exit

_Z9is_app_ofPK4exprii.exit:                       ; preds = %8
  %13 = load i32, ptr %12, align 8, !tbaa !54
  %14 = icmp eq i32 %13, 5
  %15 = getelementptr inbounds nuw i8, ptr %12, i64 4
  %16 = load i32, ptr %15, align 4
  %17 = icmp eq i32 %16, 1
  %18 = select i1 %14, i1 %17, i1 false
  br i1 %18, label %19, label %_Z9is_app_ofPK4exprii.exit.thread

19:                                               ; preds = %_Z9is_app_ofPK4exprii.exit
  %20 = getelementptr inbounds nuw i8, ptr %0, i64 8
  %21 = load ptr, ptr %20, align 8, !tbaa !217
  %.not.i.i = icmp eq ptr %21, null
  br i1 %.not.i.i, label %22, label %_ZNK10arith_util6pluginEv.exit.i

22:                                               ; preds = %19
  %23 = load ptr, ptr %0, align 8, !tbaa !220
  %24 = tail call noundef ptr @_ZNK11ast_manager10get_pluginEi(ptr noundef nonnull align 8 dereferenceable(976) %23, i32 noundef 5)
  store ptr %24, ptr %20, align 8, !tbaa !217
  br label %_ZNK10arith_util6pluginEv.exit.i

_ZNK10arith_util6pluginEv.exit.i:                 ; preds = %22, %19
  %25 = phi ptr [ %24, %22 ], [ %21, %19 ]
  %26 = getelementptr inbounds nuw i8, ptr %25, i64 24
  %27 = load ptr, ptr %26, align 8, !tbaa !3
  %28 = icmp eq ptr %27, null
  br i1 %28, label %29, label %_ZNK10arith_util2amEv.exit

29:                                               ; preds = %_ZNK10arith_util6pluginEv.exit.i
  %30 = tail call noalias noundef ptr @_ZN6memory8allocateEm(i64 noundef 784)
  %31 = getelementptr inbounds nuw i8, ptr %25, i64 8
  %32 = load ptr, ptr %31, align 8, !tbaa !22
  tail call void @_ZN17arith_decl_plugin25algebraic_numbers_wrapperC2ER8reslimit(ptr noundef nonnull align 8 dereferenceable(784) %30, ptr noundef nonnull align 8 dereferenceable(40) %32)
  store ptr %30, ptr %26, align 8, !tbaa !3
  br label %_ZNK10arith_util2amEv.exit

_ZNK10arith_util2amEv.exit:                       ; preds = %_ZNK10arith_util6pluginEv.exit.i, %29
  %33 = phi ptr [ %30, %29 ], [ %27, %_ZNK10arith_util6pluginEv.exit.i ]
  %34 = getelementptr inbounds nuw i8, ptr %33, i64 728
  %35 = tail call noundef nonnull align 8 dereferenceable(8) ptr @_ZNK10arith_util31to_irrational_algebraic_numeralEPK4expr(ptr noundef nonnull align 8 dereferenceable(16) %0, ptr noundef nonnull %1)
  tail call void @_ZN17algebraic_numbers7manager3setERNS_4anumERKS1_(ptr noundef nonnull align 8 dereferenceable(17) %34, ptr noundef nonnull align 8 dereferenceable(8) %2, ptr noundef nonnull align 8 dereferenceable(8) %35)
  br label %_Z9is_app_ofPK4exprii.exit.thread

_Z9is_app_ofPK4exprii.exit.thread:                ; preds = %8, %3, %_Z9is_app_ofPK4exprii.exit, %_ZNK10arith_util2amEv.exit
  %36 = phi i1 [ false, %_Z9is_app_ofPK4exprii.exit ], [ true, %_ZNK10arith_util2amEv.exit ], [ false, %3 ], [ false, %8 ]
  ret i1 %36
}